; Function Attrs: mustprogress nounwind uwtable
define internal fastcc noundef i32 @_ZN12_GLOBAL__N_115AArch64FastISel27fastEmit_AArch64ISD_FCMP_rrEN4llvm3MVTES2_jj(ptr noundef nonnull align 8 dereferenceable(192) %0, i16 %1, i16 %2, i32 noundef %3, i32 noundef %4) unnamed_addr #0 align 2 {
  switch i16 %1, label %_ZN12_GLOBAL__N_115AArch64FastISel35fastEmit_AArch64ISD_FCMP_MVT_f16_rrEN4llvm3MVTEjj.exit [
    i16 11, label %6
    i16 12, label %15
    i16 13, label %24
  ]

6:                                                ; preds = %5
  %.not.i = icmp eq i16 %2, 224
  br i1 %.not.i, label %7, label %_ZN12_GLOBAL__N_115AArch64FastISel35fastEmit_AArch64ISD_FCMP_MVT_f16_rrEN4llvm3MVTEjj.exit

7:                                                ; preds = %6
  %8 = getelementptr inbounds nuw i8, ptr %0, i64 176
  %9 = load ptr, ptr %8, align 8
  %10 = getelementptr inbounds nuw i8, ptr %9, i64 352
  %11 = load i8, ptr %10, align 8
  %12 = trunc i8 %11 to i1
  br i1 %12, label %13, label %_ZN12_GLOBAL__N_115AArch64FastISel35fastEmit_AArch64ISD_FCMP_MVT_f16_rrEN4llvm3MVTEjj.exit

13:                                               ; preds = %7
  %14 = tail call i32 @_ZN4llvm8FastISel15fastEmitInst_rrEjPKNS_19TargetRegisterClassEjj(ptr noundef nonnull align 8 dereferenceable(192) %0, i32 noundef 2623, ptr noundef nonnull @_ZN4llvm7AArch6413FPR16RegClassE, i32 noundef %3, i32 noundef %4) #21
  br label %_ZN12_GLOBAL__N_115AArch64FastISel35fastEmit_AArch64ISD_FCMP_MVT_f16_rrEN4llvm3MVTEjj.exit

15:                                               ; preds = %5
  %.not.i13 = icmp eq i16 %2, 224
  br i1 %.not.i13, label %16, label %_ZN12_GLOBAL__N_115AArch64FastISel35fastEmit_AArch64ISD_FCMP_MVT_f16_rrEN4llvm3MVTEjj.exit

16:                                               ; preds = %15
  %17 = getelementptr inbounds nuw i8, ptr %0, i64 176
  %18 = load ptr, ptr %17, align 8
  %19 = getelementptr inbounds nuw i8, ptr %18, i64 348
  %20 = load i8, ptr %19, align 4
  %21 = trunc i8 %20 to i1
  br i1 %21, label %22, label %_ZN12_GLOBAL__N_115AArch64FastISel35fastEmit_AArch64ISD_FCMP_MVT_f16_rrEN4llvm3MVTEjj.exit

22:                                               ; preds = %16
  %23 = tail call i32 @_ZN4llvm8FastISel15fastEmitInst_rrEjPKNS_19TargetRegisterClassEjj(ptr noundef nonnull align 8 dereferenceable(192) %0, i32 noundef 2625, ptr noundef nonnull @_ZN4llvm7AArch6413FPR32RegClassE, i32 noundef %3, i32 noundef %4) #21
  br label %_ZN12_GLOBAL__N_115AArch64FastISel35fastEmit_AArch64ISD_FCMP_MVT_f16_rrEN4llvm3MVTEjj.exit

24:                                               ; preds = %5
  %.not.i15 = icmp eq i16 %2, 224
  br i1 %.not.i15, label %25, label %_ZN12_GLOBAL__N_115AArch64FastISel35fastEmit_AArch64ISD_FCMP_MVT_f16_rrEN4llvm3MVTEjj.exit

25:                                               ; preds = %24
  %26 = getelementptr inbounds nuw i8, ptr %0, i64 176
  %27 = load ptr, ptr %26, align 8
  %28 = getelementptr inbounds nuw i8, ptr %27, i64 348
  %29 = load i8, ptr %28, align 4
  %30 = trunc i8 %29 to i1
  br i1 %30, label %31, label %_ZN12_GLOBAL__N_115AArch64FastISel35fastEmit_AArch64ISD_FCMP_MVT_f16_rrEN4llvm3MVTEjj.exit

31:                                               ; preds = %25
  %32 = tail call i32 @_ZN4llvm8FastISel15fastEmitInst_rrEjPKNS_19TargetRegisterClassEjj(ptr noundef nonnull align 8 dereferenceable(192) %0, i32 noundef 2615, ptr noundef nonnull @_ZN4llvm7AArch6413FPR64RegClassE, i32 noundef %3, i32 noundef %4) #21
  br label %_ZN12_GLOBAL__N_115AArch64FastISel35fastEmit_AArch64ISD_FCMP_MVT_f16_rrEN4llvm3MVTEjj.exit

_ZN12_GLOBAL__N_115AArch64FastISel35fastEmit_AArch64ISD_FCMP_MVT_f16_rrEN4llvm3MVTEjj.exit: ; preds = %31, %25, %24, %22, %16, %15, %13, %7, %6, %5
  %.0 = phi i32 [ 0, %5 ], [ %14, %13 ], [ 0, %6 ], [ 0, %7 ], [ %23, %22 ], [ 0, %15 ], [ 0, %16 ], [ %32, %31 ], [ 0, %24 ], [ 0, %25 ]
  ret i32 %.0
}